(i__main__
TrainData
p0
(dp1
S'Boulevard'
p2
(i__main__
Restaurant
p3
(dp4
S'urlList'
p5
(lp6
sS'NoPeople'
p7
(lp8
sS'Blurry'
p9
(lp10
sS'foursquareID'
p11
S'3fd66200f964a52052ed1ee3'
p12
sS'People'
p13
(lp14
sbsS'WaterBar'
p15
(i__main__
Restaurant
p16
(dp17
g5
(lp18
sg7
(lp19
sg9
(lp20
sg11
S'49b41d95f964a520e7521fe3'
p21
sg13
(lp22
sbsS'Bouchon'
p23
(i__main__
Restaurant
p24
(dp25
g5
(lp26
sg7
(lp27
sg9
(lp28
sg11
S'49fde735f964a520416f1fe3'
p29
sg13
(lp30
sbsS'BistroJeanty'
p31
(i__main__
Restaurant
p32
(dp33
g7
(lp34
sg13
(lp35
S'http://scontent-a.cdninstagram.com/hphotos-xpa1/t51.2885-15/924545_671026292990847_851267395_n.jpg'
p36
aS'http://scontent-b.cdninstagram.com/hphotos-xpa1/t51.2885-15/10522238_784718851572278_1798376293_n.jpg'
p37
aS'http://scontent-a.cdninstagram.com/hphotos-xfp1/t51.2885-15/10251355_345494438933096_419126837_n.jpg'
p38
aS'http://scontent-a.cdninstagram.com/hphotos-xfa1/t51.2885-15/915668_1451553561765720_889114723_n.jpg'
p39
aS'http://scontent-b.cdninstagram.com/hphotos-xaf1/t51.2885-15/1941246_538741522898353_1518096033_n.jpg'
p40
aS'http://scontent-a.cdninstagram.com/hphotos-xpa1/t51.2885-15/926249_758277410881100_696590259_n.jpg'
p41
aS'http://scontent-a.cdninstagram.com/hphotos-xpa1/t51.2885-15/10520192_784929268206008_577288087_n.jpg'
p42
aS'http://scontent-a.cdninstagram.com/hphotos-xpa1/t51.2885-15/10413140_484206941715805_484393545_n.jpg'
p43
aS'http://scontent-b.cdninstagram.com/hphotos-xaf1/t51.2885-15/915594_796876777010006_1283499523_n.jpg'
p44
aS'http://scontent-b.cdninstagram.com/hphotos-xpf1/t51.2885-15/10474979_257900444406784_1292801729_n.jpg'
p45
aS'http://scontent-b.cdninstagram.com/hphotos-xfp1/t51.2885-15/10424526_1434251920178819_2121736458_n.jpg'
p46
aS'http://scontent-a.cdninstagram.com/hphotos-xap1/t51.2885-15/10424673_892900574060134_1362921987_n.jpg'
p47
aS'http://scontent-b.cdninstagram.com/hphotos-prn/t51.2885-15/1517314_831668683527208_300031262_n.jpg'
p48
aS'http://scontent-b.cdninstagram.com/hphotos-xfp1/t51.2885-15/10449094_546568795453161_1846653198_n.jpg'
p49
aS'http://scontent-b.cdninstagram.com/hphotos-xfa1/t51.2885-15/10483606_1454156878165103_1005112956_n.jpg'
p50
aS'http://scontent-b.cdninstagram.com/hphotos-xaf1/t51.2885-15/10401828_796648680355009_863550621_n.jpg'
p51
aS'http://scontent-b.cdninstagram.com/hphotos-xap1/t51.2885-15/927672_696556220381290_11902951_n.jpg'
p52
aS'http://scontent-b.cdninstagram.com/hphotos-xfp1/t51.2885-15/891342_754334097951876_155938874_n.jpg'
p53
aS'http://scontent-b.cdninstagram.com/hphotos-xpf1/t51.2885-15/891371_303976293100893_152275236_n.jpg'
p54
aS'http://scontent-a.cdninstagram.com/hphotos-xfp1/t51.2885-15/10326502_1409574929324743_287910067_n.jpg'
p55
aS'http://scontent-b.cdninstagram.com/hphotos-xpf1/t51.2885-15/10362107_780892905254414_55138766_n.jpg'
p56
aS'http://scontent-b.cdninstagram.com/hphotos-xpf1/t51.2885-15/10349705_1448894165349667_794570401_n.jpg'
p57
aS'http://scontent-a.cdninstagram.com/hphotos-xaf1/t51.2885-15/10251300_516805795098043_722040368_n.jpg'
p58
aS'http://scontent-a.cdninstagram.com/hphotos-xfp1/t51.2885-15/10311328_635651659850030_300423522_n.jpg'
p59
asS'Food'
p60
(lp61
S'http://scontent-a.cdninstagram.com/hphotos-xaf1/t51.2885-15/10576176_1445458352384891_904881632_n.jpg'
p62
aS'http://scontent-b.cdninstagram.com/hphotos-xpa1/t51.2885-15/10523260_912480745434458_87422429_n.jpg'
p63
aS'http://scontent-b.cdninstagram.com/hphotos-xfp1/t51.2885-15/10413759_352061658274647_91308103_n.jpg'
p64
aS'http://scontent-a.cdninstagram.com/hphotos-xpa1/t51.2885-15/928631_1443591019236371_1829971673_n.jpg'
p65
aS'http://scontent-b.cdninstagram.com/hphotos-xfa1/t51.2885-15/914446_349681495178996_1528424085_n.jpg'
p66
aS'http://scontent-b.cdninstagram.com/hphotos-xfp1/t51.2885-15/10475149_337409613080734_1177315537_n.jpg'
p67
aS'http://scontent-b.cdninstagram.com/hphotos-xpa1/t51.2885-15/10522843_1507254122823545_1956907962_n.jpg'
p68
aS'http://scontent-b.cdninstagram.com/hphotos-xpf1/t51.2885-15/10005725_617207371710979_9983046_n.jpg'
p69
aS'http://scontent-a.cdninstagram.com/hphotos-xaf1/t51.2885-15/10554150_254998038024153_210253881_n.jpg'
p70
aS'http://scontent-b.cdninstagram.com/hphotos-xfp1/t51.2885-15/10553989_669942033098482_90087126_n.jpg'
p71
aS'http://scontent-b.cdninstagram.com/hphotos-xfa1/t51.2885-15/10570229_668244089910442_1654801206_n.jpg'
p72
aS'http://scontent-a.cdninstagram.com/hphotos-xpa1/t51.2885-15/10488710_750177865027927_27075435_n.jpg'
p73
aS'http://scontent-a.cdninstagram.com/hphotos-xfp1/t51.2885-15/10554259_262671607259168_449786679_n.jpg'
p74
aS'http://scontent-a.cdninstagram.com/hphotos-xaf1/t51.2885-15/10533330_692590034129187_1245912618_n.jpg'
p75
aS'http://scontent-b.cdninstagram.com/hphotos-xpa1/t51.2885-15/923696_504667776344106_106579283_n.jpg'
p76
aS'http://scontent-b.cdninstagram.com/hphotos-xaf1/t51.2885-15/10561044_704637716261389_1881330823_n.jpg'
p77
aS'http://scontent-a.cdninstagram.com/hphotos-xpf1/t51.2885-15/10326507_1529677737251639_96295370_n.jpg'
p78
aS'http://scontent-b.cdninstagram.com/hphotos-xpa1/t51.2885-15/10540309_304964383018225_860189186_n.jpg'
p79
aS'http://scontent-a.cdninstagram.com/hphotos-xpa1/t51.2885-15/925303_594421110679620_1730629958_n.jpg'
p80
aS'http://scontent-b.cdninstagram.com/hphotos-xpa1/t51.2885-15/10520351_1509567929275650_1354645487_n.jpg'
p81
aS'http://scontent-a.cdninstagram.com/hphotos-xap1/t51.2885-15/10508080_264130093793154_1331566778_n.jpg'
p82
aS'http://scontent-b.cdninstagram.com/hphotos-xpa1/t51.2885-15/10522832_1435672173376201_2075344399_n.jpg'
p83
aS'http://scontent-a.cdninstagram.com/hphotos-xpa1/t51.2885-15/927706_259531964249912_1386145541_n.jpg'
p84
aS'http://scontent-a.cdninstagram.com/hphotos-xap1/t51.2885-15/10523250_590196504428553_343901947_n.jpg'
p85
aS'http://scontent-b.cdninstagram.com/hphotos-xpa1/t51.2885-15/926222_575071502596873_26812831_n.jpg'
p86
aS'http://scontent-a.cdninstagram.com/hphotos-xfa1/t51.2885-15/10499218_1509644085913809_1409233197_n.jpg'
p87
aS'http://scontent-b.cdninstagram.com/hphotos-xpf1/t51.2885-15/10475087_289809581190298_53753736_n.jpg'
p88
aS'http://scontent-a.cdninstagram.com/hphotos-xaf1/t51.2885-15/914766_667003333393037_441880254_n.jpg'
p89
aS'http://scontent-b.cdninstagram.com/hphotos-xap1/t51.2885-15/926811_686205388099512_1785302493_n.jpg'
p90
aS'http://scontent-a.cdninstagram.com/hphotos-xpf1/t51.2885-15/10454111_672132562863162_1555951377_n.jpg'
p91
aS'http://scontent-a.cdninstagram.com/hphotos-xpa1/t51.2885-15/10522325_813241455352885_1992631394_n.jpg'
p92
aS'http://scontent-a.cdninstagram.com/hphotos-xpf1/t51.2885-15/10471837_909673722381092_211396256_n.jpg'
p93
aS'http://scontent-b.cdninstagram.com/hphotos-xpf1/t51.2885-15/10369345_603021826461678_20168034_n.jpg'
p94
aS'http://scontent-b.cdninstagram.com/hphotos-xap1/t51.2885-15/10454232_571010869686905_501560988_n.jpg'
p95
aS'http://scontent-b.cdninstagram.com/hphotos-xfa1/t51.2885-15/10375630_832755050085866_979622753_n.jpg'
p96
aS'http://scontent-b.cdninstagram.com/hphotos-xpf1/t51.2885-15/10471837_712671318792111_1554613176_n.jpg'
p97
aS'http://scontent-a.cdninstagram.com/hphotos-prn/t51.2885-15/10432033_1444662785791837_928819644_n.jpg'
p98
aS'http://scontent-a.cdninstagram.com/hphotos-xpa1/t51.2885-15/10499162_1406116363010792_960006363_n.jpg'
p99
aS'http://scontent-a.cdninstagram.com/hphotos-xpa1/t51.2885-15/10175210_701581123232894_908562742_n.jpg'
p100
aS'http://scontent-a.cdninstagram.com/hphotos-xaf1/t51.2885-15/10475172_1514878412069203_2129774552_n.jpg'
p101
aS'http://scontent-a.cdninstagram.com/hphotos-xpf1/t51.2885-15/10432070_482859678510843_312793169_n.jpg'
p102
aS'http://scontent-b.cdninstagram.com/hphotos-xfp1/t51.2885-15/10475070_1466139566964018_1571648335_n.jpg'
p103
aS'http://scontent-a.cdninstagram.com/hphotos-xpf1/t51.2885-15/10369541_1396082317347499_1291037143_n.jpg'
p104
aS'http://scontent-b.cdninstagram.com/hphotos-xpf1/t51.2885-15/10413082_468681553266339_618962175_n.jpg'
p105
aS'http://scontent-b.cdninstagram.com/hphotos-xpf1/t51.2885-15/10431773_552685201509589_750317117_n.jpg'
p106
aS'http://scontent-a.cdninstagram.com/hphotos-xfp1/t51.2885-15/10362351_567236243389027_1868245204_n.jpg'
p107
aS'http://scontent-a.cdninstagram.com/hphotos-xpf1/t51.2885-15/10413281_1429856507285101_1660791459_n.jpg'
p108
aS'http://scontent-b.cdninstagram.com/hphotos-xaf1/t51.2885-15/10453908_1495283687372981_779015988_n.jpg'
p109
aS'http://scontent-b.cdninstagram.com/hphotos-xap1/t51.2885-15/927342_1490016044563766_269284266_n.jpg'
p110
aS'http://scontent-b.cdninstagram.com/hphotos-xpf1/t51.2885-15/10413188_766769546677868_1360582401_n.jpg'
p111
aS'http://scontent-a.cdninstagram.com/hphotos-xap1/t51.2885-15/926223_1482575265293642_1578617054_n.jpg'
p112
aS'http://scontent-a.cdninstagram.com/hphotos-xap1/t51.2885-15/926799_1425297917748594_1433084470_n.jpg'
p113
aS'http://scontent-a.cdninstagram.com/hphotos-xfp1/t51.2885-15/10413171_289135761265273_793051857_n.jpg'
p114
aS'http://scontent-a.cdninstagram.com/hphotos-xpa1/t51.2885-15/10413080_766279050083246_1759981961_n.jpg'
p115
aS'http://scontent-b.cdninstagram.com/hphotos-xap1/t51.2885-15/925266_273125636199985_1991191665_n.jpg'
p116
aS'http://scontent-b.cdninstagram.com/hphotos-xap1/t51.2885-15/10362333_246520972215080_657580247_n.jpg'
p117
aS'http://scontent-b.cdninstagram.com/hphotos-xpf1/t51.2885-15/10431859_301937889972881_366377470_n.jpg'
p118
aS'http://scontent-b.cdninstagram.com/hphotos-xaf1/t51.2885-15/10362096_336027563211925_1642581088_n.jpg'
p119
aS'http://scontent-b.cdninstagram.com/hphotos-xaf1/t51.2885-15/10369512_692844914084085_1533334293_n.jpg'
p120
aS'http://scontent-b.cdninstagram.com/hphotos-xaf1/t51.2885-15/915570_646976755395552_461386034_n.jpg'
p121
aS'http://scontent-b.cdninstagram.com/hphotos-xfp1/t51.2885-15/10326391_1483719841860783_1156536454_n.jpg'
p122
aS'http://scontent-a.cdninstagram.com/hphotos-xpa1/t51.2885-15/924370_671542389559606_2072645755_n.jpg'
p123
aS'http://scontent-b.cdninstagram.com/hphotos-xfp1/t51.2885-15/10268736_559000080884372_185150088_n.jpg'
p124
asg11
S'4a4ed4b9f964a52023af1fe3'
p125
sS'Reject'
p126
(lp127
S'http://scontent-a.cdninstagram.com/hphotos-xpf1/t51.2885-15/10560941_563992367040290_954351951_n.jpg'
p128
aS'http://scontent-b.cdninstagram.com/hphotos-xpf1/t51.2885-15/10537261_794825500538441_38584373_n.jpg'
p129
aS'http://scontent-a.cdninstagram.com/hphotos-xfp1/t51.2885-15/10561003_667877393287859_1280992738_n.jpg'
p130
aS'http://scontent-b.cdninstagram.com/hphotos-xpa1/t51.2885-15/928336_770674349663489_1090939165_n.jpg'
p131
aS'http://scontent-a.cdninstagram.com/hphotos-xap1/t51.2885-15/10514133_1449629471974209_1220338785_n.jpg'
p132
aS'http://scontent-b.cdninstagram.com/hphotos-xap1/t51.2885-15/10522336_1442633066010281_1458944396_n.jpg'
p133
aS'http://scontent-a.cdninstagram.com/hphotos-xpa1/t51.2885-15/10475020_528564007244870_1460908219_n.jpg'
p134
aS'http://scontent-b.cdninstagram.com/hphotos-xfp1/t51.2885-15/10488663_666152956788778_549963758_n.jpg'
p135
aS'http://scontent-a.cdninstagram.com/hphotos-xpa1/t51.2885-15/924818_1521252558087616_1769597362_n.jpg'
p136
aS'http://scontent-b.cdninstagram.com/hphotos-xpf1/t51.2885-15/10522855_1458348067747328_1613666844_n.jpg'
p137
ag39
aS'http://scontent-a.cdninstagram.com/hphotos-xaf1/t51.2885-15/10546560_1599101376982899_934982759_n.jpg'
p138
aS'http://scontent-b.cdninstagram.com/hphotos-xfp1/t51.2885-15/10549777_320643614764537_1719881011_n.jpg'
p139
aS'http://scontent-a.cdninstagram.com/hphotos-xaf1/t51.2885-15/10549734_828992107118603_313455960_n.jpg'
p140
aS'http://scontent-a.cdninstagram.com/hphotos-xap1/t51.2885-15/928317_1527727974117626_1217160963_n.jpg'
p141
aS'http://scontent-a.cdninstagram.com/hphotos-xap1/t51.2885-15/10518072_1503201023231376_249982346_n.jpg'
p142
aS'http://scontent-a.cdninstagram.com/hphotos-xpa1/t51.2885-15/10475011_1439186009690679_1119738192_n.jpg'
p143
aS'http://scontent-a.cdninstagram.com/hphotos-xpa1/t51.2885-15/10540433_1438970966370146_2095233630_n.jpg'
p144
aS'http://scontent-a.cdninstagram.com/hphotos-xpf1/t51.2885-15/10472036_709571615765942_439571504_n.jpg'
p145
aS'http://scontent-a.cdninstagram.com/hphotos-xap1/t51.2885-15/10513728_298772566961756_2025818910_n.jpg'
p146
aS'http://scontent-b.cdninstagram.com/hphotos-xfa1/t51.2885-15/914411_672230656165849_5104203_n.jpg'
p147
aS'http://scontent-a.cdninstagram.com/hphotos-xpf1/t51.2885-15/10467781_812097022148717_312655217_n.jpg'
p148
aS'http://scontent-b.cdninstagram.com/hphotos-xfp1/t51.2885-15/10507807_1505018333046956_1632554353_n.jpg'
p149
aS'http://scontent-b.cdninstagram.com/hphotos-xfp1/t51.2885-15/10488693_1509662672596909_1365702262_n.jpg'
p150
aS'http://scontent-a.cdninstagram.com/hphotos-xfp1/t51.2885-15/891384_332966416856106_1297284010_n.jpg'
p151
aS'http://scontent-a.cdninstagram.com/hphotos-xpf1/t51.2885-15/10448855_1464487907130362_858004921_n.jpg'
p152
aS'http://scontent-a.cdninstagram.com/hphotos-xpa1/t51.2885-15/10483463_1432329077037941_548261903_n.jpg'
p153
aS'http://scontent-b.cdninstagram.com/hphotos-xfp1/t51.2885-15/10369533_597893686974528_233253624_n.jpg'
p154
aS'http://scontent-a.cdninstagram.com/hphotos-xaf1/t51.2885-15/10401600_372720126209437_2092042567_n.jpg'
p155
aS'http://scontent-a.cdninstagram.com/hphotos-xfa1/t51.2885-15/10467814_280126042166501_1048818324_n.jpg'
p156
aS'http://scontent-a.cdninstagram.com/hphotos-xfp1/t51.2885-15/10449084_255025868036943_1149746264_n.jpg'
p157
aS'http://scontent-b.cdninstagram.com/hphotos-xap1/t51.2885-15/10467765_700354866692718_1823917575_n.jpg'
p158
aS'http://scontent-b.cdninstagram.com/hphotos-prn/t51.2885-15/10448968_1450997628481018_1392339174_n.jpg'
p159
aS'http://scontent-a.cdninstagram.com/hphotos-xpa1/t51.2885-15/10449085_659832134103130_1189310635_n.jpg'
p160
aS'http://scontent-b.cdninstagram.com/hphotos-xpf1/t51.2885-15/10431826_1631074370450395_832864015_n.jpg'
p161
aS'http://scontent-b.cdninstagram.com/hphotos-xpa1/t51.2885-15/10354370_592486007531612_1907262627_n.jpg'
p162
aS'http://scontent-b.cdninstagram.com/hphotos-xfp1/t51.2885-15/10413086_274202029419334_530493553_n.jpg'
p163
aS'http://scontent-a.cdninstagram.com/hphotos-xpa1/t51.2885-15/10388053_1428763277393343_702358608_n.jpg'
p164
aS'http://scontent-a.cdninstagram.com/hphotos-xfp1/t51.2885-15/10362348_1403764089911604_421291530_n.jpg'
p165
aS'http://scontent-a.cdninstagram.com/hphotos-xpf1/t51.2885-15/10431850_1436980969886369_1833971778_n.jpg'
p166
aS'http://scontent-b.cdninstagram.com/hphotos-xpa1/l/t51.2885-15/923624_709418885782038_1632029943_n.jpg'
p167
aS'http://scontent-b.cdninstagram.com/hphotos-xaf1/t51.2885-15/10358316_1426770887585778_1886560656_n.jpg'
p168
aS'http://scontent-b.cdninstagram.com/hphotos-xpf1/t51.2885-15/10413008_770707809616421_965448889_n.jpg'
p169
aS'http://scontent-a.cdninstagram.com/hphotos-xaf1/t51.2885-15/10388046_1493146750898366_1000905968_n.jpg'
p170
aS'http://scontent-b.cdninstagram.com/hphotos-xpf1/t51.2885-15/10375591_412471832228056_1669934258_n.jpg'
p171
aS'http://scontent-a.cdninstagram.com/hphotos-xfp1/t51.2885-15/10375681_251289781725481_709355487_n.jpg'
p172
aS'http://scontent-a.cdninstagram.com/hphotos-xpa1/t51.2885-15/1170119_289761911205306_259429822_n.jpg'
p173
aS'http://scontent-b.cdninstagram.com/hphotos-xpa1/t51.2885-15/10326524_305374882950781_1564016092_n.jpg'
p174
aS'http://scontent-a.cdninstagram.com/hphotos-xfa1/t51.2885-15/10412932_1387081364913525_1398546695_n.jpg'
p175
aS'http://scontent-a.cdninstagram.com/hphotos-xfp1/t51.2885-15/10358334_258416957677377_1236738146_n.jpg'
p176
aS'http://scontent-a.cdninstagram.com/hphotos-xfp1/t51.2885-15/10311091_665204890218525_1434653313_n.jpg'
p177
aS'http://scontent-b.cdninstagram.com/hphotos-xpf1/t51.2885-15/10362212_279419922235366_1509021329_n.jpg'
p178
aS'http://scontent-b.cdninstagram.com/hphotos-xaf1/t51.2885-15/10296780_1507829572770806_836827959_n.jpg'
p179
aS'http://scontent-a.cdninstagram.com/hphotos-xfp1/t51.2885-15/10354411_628531847239299_458130610_n.jpg'
p180
aS'http://scontent-b.cdninstagram.com/hphotos-xpf1/t51.2885-15/10375682_1453409648237584_1404073699_n.jpg'
p181
aS'http://scontent-a.cdninstagram.com/hphotos-xpf1/t51.2885-15/10299886_595943530500991_1263646704_n.jpg'
p182
aS'http://scontent-a.cdninstagram.com/hphotos-xpf1/t51.2885-15/10296749_577926002306727_693007633_n.jpg'
p183
aS'http://scontent-a.cdninstagram.com/hphotos-xap1/t51.2885-15/10354515_1382425745378105_1115330953_n.jpg'
p184
aS'http://scontent-b.cdninstagram.com/hphotos-xpa1/t51.2885-15/10354503_549922321785682_411724103_n.jpg'
p185
aS'http://scontent-b.cdninstagram.com/hphotos-xap1/t51.2885-15/929337_224407471102284_315044143_n.jpg'
p186
aS'http://scontent-b.cdninstagram.com/hphotos-xfp1/t51.2885-15/10362087_1485676748314368_1712454672_n.jpg'
p187
aS'http://scontent-a.cdninstagram.com/hphotos-xfa1/t51.2885-15/10349830_715737998490320_623379438_n.jpg'
p188
aS'http://scontent-b.cdninstagram.com/hphotos-xpa1/t51.2885-15/929330_750282941683633_549412944_n.jpg'
p189
aS'http://scontent-a.cdninstagram.com/hphotos-xpa1/t51.2885-15/923975_822602641107405_1300074724_n.jpg'
p190
asg5
(lp191
g62
ag63
ag64
ag128
ag36
ag65
ag66
ag129
ag67
ag130
ag131
ag68
ag69
ag70
ag71
ag72
ag73
ag74
ag75
ag76
ag37
ag132
ag77
ag78
ag79
ag133
ag38
ag134
ag135
ag80
ag136
ag137
ag39
ag81
ag40
ag138
ag139
ag41
ag42
ag140
ag141
ag82
ag142
ag143
ag43
ag144
ag83
ag84
ag85
ag86
ag87
ag145
ag88
ag89
ag90
ag146
ag44
ag91
ag147
ag92
ag93
ag148
ag45
ag94
ag149
ag150
ag95
ag151
ag96
ag97
ag98
ag46
ag152
ag99
ag153
ag154
ag155
ag156
ag47
ag48
ag100
ag49
ag50
ag101
ag157
ag102
ag103
ag158
ag159
ag160
ag104
ag105
ag106
ag107
ag108
ag109
ag161
ag51
ag110
ag111
ag112
ag113
ag162
ag114
ag52
ag115
ag163
ag164
ag165
ag166
ag116
ag117
ag167
ag118
ag168
ag53
ag169
ag54
ag170
ag171
ag119
ag172
ag173
ag120
ag174
ag55
ag121
ag175
ag176
ag56
ag177
ag122
ag178
ag179
ag180
ag181
ag182
ag123
ag183
ag184
ag185
ag57
ag58
ag186
ag187
ag59
ag188
ag124
ag189
ag190
asg9
(lp192
sbsb.