(i__main__
TrainData
p0
(dp1
S'Boulevard'
p2
(i__main__
Restaurant
p3
(dp4
S'urlList'
p5
(lp6
sS'NoPeople'
p7
(lp8
sS'Blurry'
p9
(lp10
sS'foursquareID'
p11
S'3fd66200f964a52052ed1ee3'
p12
sS'People'
p13
(lp14
sbsS'WaterBar'
p15
(i__main__
Restaurant
p16
(dp17
g5
(lp18
sg7
(lp19
sg9
(lp20
sg11
S'49b41d95f964a520e7521fe3'
p21
sg13
(lp22
sbsS'Bouchon'
p23
(i__main__
Restaurant
p24
(dp25
g7
(lp26
sg13
(lp27
S'http://scontent-a.cdninstagram.com/hphotos-xpa1/t51.2885-15/925328_716875341711322_1925220943_n.jpg'
p28
aS'http://scontent-b.cdninstagram.com/hphotos-xaf1/t51.2885-15/10570219_487197444751133_280184108_n.jpg'
p29
aS'http://scontent-a.cdninstagram.com/hphotos-xpf1/t51.2885-15/10543568_452321384883088_578607966_n.jpg'
p30
aS'http://scontent-a.cdninstagram.com/hphotos-xap1/t51.2885-15/10520148_1482364812010412_40973852_n.jpg'
p31
aS'http://scontent-b.cdninstagram.com/hphotos-xpa1/t51.2885-15/10507852_825039987509298_1766207219_n.jpg'
p32
aS'http://scontent-a.cdninstagram.com/hphotos-xfp1/t51.2885-15/10523601_1446572805619089_1890388434_n.jpg'
p33
aS'http://scontent-b.cdninstagram.com/hphotos-xap1/t51.2885-15/10508090_725246340868678_513834298_n.jpg'
p34
aS'http://scontent-a.cdninstagram.com/hphotos-xpa1/t51.2885-15/10540277_690357647697619_1134262322_n.jpg'
p35
aS'http://scontent-a.cdninstagram.com/hphotos-xfp1/t51.2885-15/10549779_1494368460801028_231629711_n.jpg'
p36
aS'http://scontent-b.cdninstagram.com/hphotos-xpa1/t51.2885-15/924424_1443682435904485_1800139769_n.jpg'
p37
aS'http://scontent-a.cdninstagram.com/hphotos-xfa1/t51.2885-15/10554226_601168509998074_1138932241_n.jpg'
p38
aS'http://scontent-b.cdninstagram.com/hphotos-xap1/t51.2885-15/10538700_1496702747213821_972729207_n.jpg'
p39
aS'http://scontent-b.cdninstagram.com/hphotos-xpf1/t51.2885-15/10507973_1529044857317700_1144480382_n.jpg'
p40
aS'http://scontent-a.cdninstagram.com/hphotos-xfa1/t51.2885-15/10553980_1516350658578372_828195713_n.jpg'
p41
aS'http://scontent-a.cdninstagram.com/hphotos-xap1/t51.2885-15/10513713_538744699581648_1424290566_n.jpg'
p42
aS'http://scontent-a.cdninstagram.com/hphotos-xap1/t51.2885-15/10507806_1433034066978203_1187751978_n.jpg'
p43
aS'http://scontent-b.cdninstagram.com/hphotos-xap1/t51.2885-15/10540230_1451189768473331_885345081_n.jpg'
p44
aS'http://scontent-a.cdninstagram.com/hphotos-prn/t51.2885-15/10523521_658153607593583_1936567631_n.jpg'
p45
aS'http://scontent-b.cdninstagram.com/hphotos-xpf1/t51.2885-15/10554089_946524155377233_1728056718_n.jpg'
p46
aS'http://scontent-a.cdninstagram.com/hphotos-xap1/t51.2885-15/10520295_625444877563393_1754492868_n.jpg'
p47
aS'http://scontent-a.cdninstagram.com/hphotos-xap1/t51.2885-15/10475016_307324262777585_2006377062_n.jpg'
p48
aS'http://scontent-a.cdninstagram.com/hphotos-xfp1/t51.2885-15/10499061_602036876582215_1185528149_n.jpg'
p49
aS'http://scontent-a.cdninstagram.com/hphotos-xfp1/t51.2885-15/10549861_655173631225261_1159445230_n.jpg'
p50
aS'http://scontent-a.cdninstagram.com/hphotos-xap1/t51.2885-15/10518105_767259149963062_626930832_n.jpg'
p51
aS'http://scontent-a.cdninstagram.com/hphotos-xpf1/t51.2885-15/10549811_1437541333191072_173642971_n.jpg'
p52
aS'http://scontent-b.cdninstagram.com/hphotos-xfp1/t51.2885-15/10536894_1525354444352647_91667443_n.jpg'
p53
aS'http://scontent-b.cdninstagram.com/hphotos-xpa1/t51.2885-15/925058_305432396287475_1322217928_n.jpg'
p54
aS'http://scontent-a.cdninstagram.com/hphotos-xpf1/l/t51.2885-15/10471816_523974597728814_1375268635_n.jpg'
p55
aS'http://scontent-b.cdninstagram.com/hphotos-xap1/t51.2885-15/10499226_1470903516489529_633360408_n.jpg'
p56
aS'http://scontent-b.cdninstagram.com/hphotos-xpf1/t51.2885-15/891380_596632933783352_1430478278_n.jpg'
p57
aS'http://scontent-a.cdninstagram.com/hphotos-xfp1/t51.2885-15/10467717_1445824569010118_664919985_n.jpg'
p58
aS'http://scontent-b.cdninstagram.com/hphotos-xpa1/t51.2885-15/924037_628921793870146_621499025_n.jpg'
p59
aS'http://scontent-a.cdninstagram.com/hphotos-xap1/t51.2885-15/926814_1447821838801677_1805237699_n.jpg'
p60
aS'http://scontent-a.cdninstagram.com/hphotos-xap1/t51.2885-15/10514037_1414927322129563_483749769_n.jpg'
p61
aS'http://scontent-a.cdninstagram.com/hphotos-xpa1/t51.2885-15/10387895_297672993728061_266268321_n.jpg'
p62
aS'http://scontent-b.cdninstagram.com/hphotos-xfa1/t51.2885-15/914399_1469758773269456_1106478972_n.jpg'
p63
aS'http://scontent-a.cdninstagram.com/hphotos-prn/t51.2885-15/929144_735805923132706_1345668899_n.jpg'
p64
aS'http://scontent-b.cdninstagram.com/hphotos-xpa1/t51.2885-15/10499027_338808659606374_4597630_n.jpg'
p65
aS'http://scontent-a.cdninstagram.com/hphotos-xfp1/t51.2885-15/10513815_814981355186455_2082996596_n.jpg'
p66
aS'http://scontent-a.cdninstagram.com/hphotos-xap1/t51.2885-15/926490_251626308361044_1883899038_n.jpg'
p67
aS'http://scontent-a.cdninstagram.com/hphotos-xpa1/t51.2885-15/927356_799768370056233_267414012_n.jpg'
p68
aS'http://scontent-b.cdninstagram.com/hphotos-xfa1/t51.2885-15/914756_695759807145709_1382547146_n.jpg'
p69
aS'http://scontent-b.cdninstagram.com/hphotos-xpf1/t51.2885-15/10483499_239413036255711_904149748_n.jpg'
p70
aS'http://scontent-b.cdninstagram.com/hphotos-xpa1/t51.2885-15/10499071_308109932688832_879203981_n.jpg'
p71
aS'http://scontent-b.cdninstagram.com/hphotos-xpa1/t51.2885-15/10424390_642858552470118_354140223_n.jpg'
p72
aS'http://scontent-a.cdninstagram.com/hphotos-xaf1/t51.2885-15/10448970_1557792357781624_329472050_n.jpg'
p73
aS'http://scontent-b.cdninstagram.com/hphotos-xpf1/t51.2885-15/10449145_1446613042257129_1707723623_n.jpg'
p74
asS'Food'
p75
(lp76
S'http://scontent-b.cdninstagram.com/hphotos-xfp1/t51.2885-15/10537272_585215528255189_548606763_n.jpg'
p77
aS'http://scontent-a.cdninstagram.com/hphotos-xap1/t51.2885-15/10513992_273819852823978_1733769000_n.jpg'
p78
aS'http://scontent-b.cdninstagram.com/hphotos-xpa1/t51.2885-15/10537144_334598256698235_54791514_n.jpg'
p79
aS'http://scontent-b.cdninstagram.com/hphotos-xaf1/t51.2885-15/10570117_1441285226157590_231534731_n.jpg'
p80
aS'http://scontent-a.cdninstagram.com/hphotos-xap1/t51.2885-15/10520274_546764005434060_1089944005_n.jpg'
p81
aS'http://scontent-b.cdninstagram.com/hphotos-xfa1/t51.2885-15/10570052_908338359183557_437410101_n.jpg'
p82
aS'http://scontent-a.cdninstagram.com/hphotos-xpa1/t51.2885-15/926252_270957909763130_1559478634_n.jpg'
p83
aS'http://scontent-b.cdninstagram.com/hphotos-xap1/t51.2885-15/10523280_675269402565631_570653399_n.jpg'
p84
aS'http://scontent-a.cdninstagram.com/hphotos-xpf1/t51.2885-15/10554005_244523119090409_1829215365_n.jpg'
p85
aS'http://scontent-a.cdninstagram.com/hphotos-xaf1/t51.2885-15/10561056_777816565573420_2072198901_n.jpg'
p86
aS'http://scontent-a.cdninstagram.com/hphotos-xpa1/t51.2885-15/10533110_1526022850954388_1994043123_n.jpg'
p87
aS'http://scontent-b.cdninstagram.com/hphotos-xpa1/t51.2885-15/10518145_1472585346315208_1330443633_n.jpg'
p88
aS'http://scontent-b.cdninstagram.com/hphotos-xpf1/t51.2885-15/10474957_295018537336746_1911651993_n.jpg'
p89
aS'http://scontent-a.cdninstagram.com/hphotos-xpa1/t51.2885-15/925342_299332460236420_1045574082_n.jpg'
p90
aS'http://scontent-a.cdninstagram.com/hphotos-xpa1/t51.2885-15/10475204_780248731995774_718100890_n.jpg'
p91
aS'http://scontent-b.cdninstagram.com/hphotos-xpf1/t51.2885-15/891428_259624590897814_650844731_n.jpg'
p92
aS'http://scontent-b.cdninstagram.com/hphotos-xpa1/t51.2885-15/10546724_294692317368957_1790788166_n.jpg'
p93
aS'http://scontent-b.cdninstagram.com/hphotos-xpa1/t51.2885-15/10448920_922017954491274_198717281_n.jpg'
p94
aS'http://scontent-b.cdninstagram.com/hphotos-xfp1/t51.2885-15/10522195_706382239397709_831029635_n.jpg'
p95
aS'http://scontent-b.cdninstagram.com/hphotos-xfa1/t51.2885-15/10522168_655325931220076_1351698061_n.jpg'
p96
aS'http://scontent-a.cdninstagram.com/hphotos-xap1/t51.2885-15/10539162_664564136965353_262527846_n.jpg'
p97
aS'http://scontent-a.cdninstagram.com/hphotos-xpa1/t51.2885-15/10514093_254388551418510_1673479964_n.jpg'
p98
aS'http://scontent-b.cdninstagram.com/hphotos-xfp1/t51.2885-15/10549845_294208117418350_1603213156_n.jpg'
p99
aS'http://scontent-a.cdninstagram.com/hphotos-xfa1/t51.2885-15/10522168_469139636521723_1003190746_n.jpg'
p100
aS'http://scontent-a.cdninstagram.com/hphotos-xpa1/t51.2885-15/10520146_602011059914482_2040211616_n.jpg'
p101
aS'http://scontent-b.cdninstagram.com/hphotos-xap1/t51.2885-15/10507935_472272376250222_1964125667_n.jpg'
p102
aS'http://scontent-b.cdninstagram.com/hphotos-xfa1/t51.2885-15/10549630_516002095195929_1620178912_n.jpg'
p103
aS'http://scontent-a.cdninstagram.com/hphotos-xpa1/t51.2885-15/10513745_794617780578398_229520388_n.jpg'
p104
aS'http://scontent-b.cdninstagram.com/hphotos-xap1/t51.2885-15/926538_534920359969172_532122884_n.jpg'
p105
aS'http://scontent-b.cdninstagram.com/hphotos-xpf1/t51.2885-15/10499183_467497063394816_116602619_n.jpg'
p106
aS'http://scontent-b.cdninstagram.com/hphotos-xap1/t51.2885-15/10540251_235944996615389_2032221982_n.jpg'
p107
aS'http://scontent-b.cdninstagram.com/hphotos-xfp1/t51.2885-15/10475196_502995689834275_1330360380_n.jpg'
p108
aS'http://scontent-a.cdninstagram.com/hphotos-xpa1/t51.2885-15/10475015_907572232592781_1387071405_n.jpg'
p109
aS'http://scontent-a.cdninstagram.com/hphotos-xpa1/t51.2885-15/10520359_534015910037937_1268100251_n.jpg'
p110
aS'http://scontent-b.cdninstagram.com/hphotos-xpa1/t51.2885-15/10518167_524325341000897_1976138052_n.jpg'
p111
aS'http://scontent-b.cdninstagram.com/hphotos-xap1/t51.2885-15/926526_1502457933324372_1641518098_n.jpg'
p112
aS'http://scontent-a.cdninstagram.com/hphotos-xpa1/t51.2885-15/10507838_1418156031807228_662721002_n.jpg'
p113
aS'http://scontent-a.cdninstagram.com/hphotos-xpa1/t51.2885-15/10525522_683718708343710_236879447_n.jpg'
p114
aS'http://scontent-a.cdninstagram.com/hphotos-xfa1/t51.2885-15/917165_812369615463942_1142514494_n.jpg'
p115
aS'http://scontent-b.cdninstagram.com/hphotos-xpa1/t51.2885-15/10520152_685325234854277_1042560575_n.jpg'
p116
aS'http://scontent-b.cdninstagram.com/hphotos-xpa1/t51.2885-15/10522271_298650253642957_73699383_n.jpg'
p117
aS'http://scontent-b.cdninstagram.com/hphotos-xap1/t51.2885-15/10508008_693587920690131_827643_n.jpg'
p118
aS'http://scontent-a.cdninstagram.com/hphotos-xpf1/t51.2885-15/10502607_768555166499230_1801136174_n.jpg'
p119
aS'http://scontent-a.cdninstagram.com/hphotos-xpa1/t51.2885-15/928285_336895156468472_510188577_n.jpg'
p120
aS'http://scontent-b.cdninstagram.com/hphotos-xpa1/t51.2885-15/10520350_833887339969690_476206213_n.jpg'
p121
aS'http://scontent-b.cdninstagram.com/hphotos-xpa1/t51.2885-15/10453816_1515144002047887_1605290095_n.jpg'
p122
aS'http://scontent-a.cdninstagram.com/hphotos-xpf1/t51.2885-15/10483486_298945000284224_1690813856_n.jpg'
p123
aS'http://scontent-b.cdninstagram.com/hphotos-xfa1/t51.2885-15/914407_1521198774765681_935189906_n.jpg'
p124
aS'http://scontent-b.cdninstagram.com/hphotos-xpf1/t51.2885-15/10471882_330064503807996_1161711915_n.jpg'
p125
aS'http://scontent-a.cdninstagram.com/hphotos-xap1/t51.2885-15/10522809_800593246647477_2142121417_n.jpg'
p126
aS'http://scontent-a.cdninstagram.com/hphotos-xpa1/t51.2885-15/10499312_1449474875304139_503567607_n.jpg'
p127
aS'http://scontent-a.cdninstagram.com/hphotos-xpa1/t51.2885-15/925292_687850631284852_1619005456_n.jpg'
p128
aS'http://scontent-b.cdninstagram.com/hphotos-xfp1/t51.2885-15/10483422_1422632221353586_1942091922_n.jpg'
p129
aS'http://scontent-a.cdninstagram.com/hphotos-xfp1/t51.2885-15/10454125_303910223109924_2006695259_n.jpg'
p130
aS'http://scontent-a.cdninstagram.com/hphotos-prn/t51.2885-15/929115_778378388869509_567240065_n.jpg'
p131
aS'http://scontent-b.cdninstagram.com/hphotos-xfp1/t51.2885-15/10454017_305875189572400_1094630796_n.jpg'
p132
aS'http://scontent-a.cdninstagram.com/hphotos-xap1/t51.2885-15/10472034_1444054349192435_1493572186_n.jpg'
p133
aS'http://scontent-b.cdninstagram.com/hphotos-xap1/t51.2885-15/10499037_674948475913508_439618083_n.jpg'
p134
aS'http://scontent-a.cdninstagram.com/hphotos-xfp1/t51.2885-15/10467933_284903345015841_22599042_n.jpg'
p135
aS'http://scontent-b.cdninstagram.com/hphotos-xfa1/t51.2885-15/10467874_767821793269760_722013511_n.jpg'
p136
aS'http://scontent-a.cdninstagram.com/hphotos-xpa1/t51.2885-15/10508045_310171299159755_1801945206_n.jpg'
p137
asg11
S'49fde735f964a520416f1fe3'
p138
sS'Reject'
p139
(lp140
S'http://scontent-b.cdninstagram.com/hphotos-xap1/t51.2885-15/10520280_678379345575613_979659548_n.jpg'
p141
aS'http://scontent-a.cdninstagram.com/hphotos-xaf1/t51.2885-15/10561110_739511096107819_567779343_n.jpg'
p142
aS'http://scontent-b.cdninstagram.com/hphotos-xaf1/t51.2885-15/10570230_701605296542481_519422625_n.jpg'
p143
aS'http://scontent-b.cdninstagram.com/hphotos-xpa1/t51.2885-15/10520218_566380013473417_877615056_n.jpg'
p144
aS'http://scontent-b.cdninstagram.com/hphotos-xpf1/t51.2885-15/10554197_273228829527996_342829356_n.jpg'
p145
aS'http://scontent-a.cdninstagram.com/hphotos-xap1/t51.2885-15/10546779_666475153448968_1040317238_n.jpg'
p146
aS'http://scontent-b.cdninstagram.com/hphotos-xap1/t51.2885-15/10349823_682823261766785_745250299_n.jpg'
p147
aS'http://scontent-b.cdninstagram.com/hphotos-xfp1/t51.2885-15/10471779_273382652847972_674134249_n.jpg'
p148
aS'http://scontent-a.cdninstagram.com/hphotos-xfp1/t51.2885-15/10543572_263009737239994_839850886_n.jpg'
p149
aS'http://scontent-b.cdninstagram.com/hphotos-xap1/t51.2885-15/926523_1528987917325011_1844458606_n.jpg'
p150
aS'http://scontent-b.cdninstagram.com/hphotos-xaf1/t51.2885-15/10488588_865354380160485_1188107953_n.jpg'
p151
aS'http://scontent-a.cdninstagram.com/hphotos-xaf1/t51.2885-15/10549728_702538219813981_317668855_n.jpg'
p152
aS'http://scontent-a.cdninstagram.com/hphotos-xaf1/t51.2885-15/914424_243121239220215_1159088478_n.jpg'
p153
aS'http://scontent-b.cdninstagram.com/hphotos-xfp1/t51.2885-15/10547325_821068934583363_1680278650_n.jpg'
p154
aS'http://scontent-b.cdninstagram.com/hphotos-xpf1/t51.2885-15/10549877_1514545082092501_788967445_n.jpg'
p155
aS'http://scontent-a.cdninstagram.com/hphotos-xpa1/t51.2885-15/924038_681683078553595_609036573_n.jpg'
p156
aS'http://scontent-b.cdninstagram.com/hphotos-xap1/t51.2885-15/1941141_1442606009336788_366866847_n.jpg'
p157
aS'http://scontent-a.cdninstagram.com/hphotos-prn/t51.2885-15/10518229_1431537030462911_813692831_n.jpg'
p158
aS'http://scontent-b.cdninstagram.com/hphotos-xpa1/t51.2885-15/927725_1530501847172842_175625488_n.jpg'
p159
aS'http://scontent-a.cdninstagram.com/hphotos-xfp1/t51.2885-15/10554007_438551016287258_1795638827_n.jpg'
p160
aS'http://scontent-a.cdninstagram.com/hphotos-xpa1/t51.2885-15/10413806_603398729774054_1616873557_n.jpg'
p161
aS'http://scontent-b.cdninstagram.com/hphotos-xpa1/t51.2885-15/10507906_587448791374247_1029632798_n.jpg'
p162
aS'http://scontent-a.cdninstagram.com/hphotos-xap1/t51.2885-15/10549641_851485011556762_388785436_n.jpg'
p163
aS'http://scontent-b.cdninstagram.com/hphotos-xaf1/t51.2885-15/10549854_430520537086959_1693491064_n.jpg'
p164
aS'http://scontent-b.cdninstagram.com/hphotos-xpf1/t51.2885-15/10549913_248377505286059_848818541_n.jpg'
p165
aS'http://scontent-b.cdninstagram.com/hphotos-xpa1/t51.2885-15/928601_267552273435918_1587992747_n.jpg'
p166
aS'http://scontent-b.cdninstagram.com/hphotos-xpa1/t51.2885-15/10449034_306969689469706_81400806_n.jpg'
p167
aS'http://scontent-b.cdninstagram.com/hphotos-xpf1/t51.2885-15/10502573_1510013479230018_1286706008_n.jpg'
p168
aS'http://scontent-a.cdninstagram.com/hphotos-xaf1/t51.2885-15/914748_635508796535021_907090222_n.jpg'
p169
aS'http://scontent-a.cdninstagram.com/hphotos-xpf1/t51.2885-15/10349529_1436609646604622_1771305236_n.jpg'
p170
aS'http://scontent-a.cdninstagram.com/hphotos-xpa1/t51.2885-15/926815_650178275065105_168282677_n.jpg'
p171
aS'http://scontent-a.cdninstagram.com/hphotos-xfp1/t51.2885-15/10507827_1441297759471946_605743493_n.jpg'
p172
aS'http://scontent-b.cdninstagram.com/hphotos-xfa1/t51.2885-15/914413_687972154591034_1187575717_n.jpg'
p173
aS'http://scontent-b.cdninstagram.com/hphotos-xap1/t51.2885-15/927098_782685258421809_1847114570_n.jpg'
p174
aS'http://scontent-b.cdninstagram.com/hphotos-xaf1/t51.2885-15/10453836_1449689925281336_517617793_n.jpg'
p175
ag128
aS'http://scontent-a.cdninstagram.com/hphotos-xpf1/l/t51.2885-15/10488671_574488605995758_2052955148_n.jpg'
p176
aS'http://scontent-b.cdninstagram.com/hphotos-xfa1/t51.2885-15/914749_1434301816853741_1265139242_n.jpg'
p177
aS'http://scontent-a.cdninstagram.com/hphotos-xfa1/t51.2885-15/10488802_252553941603833_1045307862_n.jpg'
p178
aS'http://scontent-a.cdninstagram.com/hphotos-xap1/t51.2885-15/10508084_1493188584249842_413987745_n.jpg'
p179
aS'http://scontent-b.cdninstagram.com/hphotos-xaf1/t51.2885-15/917142_587541491366559_7208779_n.jpg'
p180
aS'http://scontent-b.cdninstagram.com/hphotos-xpa1/t51.2885-15/10432025_900149303335127_1714112470_n.jpg'
p181
aS'http://scontent-b.cdninstagram.com/hphotos-xap1/t51.2885-15/10467819_270385686500104_280808362_n.jpg'
p182
asg5
(lp183
g28
ag77
ag141
ag78
ag79
ag80
ag29
ag30
ag31
ag32
ag81
ag82
ag142
ag143
ag83
ag84
ag144
ag33
ag85
ag86
ag87
ag34
ag88
ag89
ag145
ag90
ag91
ag92
ag146
ag93
ag35
ag147
ag148
ag94
ag95
ag149
ag36
ag37
ag38
ag96
ag97
ag39
ag40
ag150
ag98
ag151
ag41
ag99
ag152
ag42
ag43
ag44
ag45
ag153
ag154
ag155
ag156
ag46
ag157
ag47
ag158
ag48
ag49
ag50
ag159
ag160
ag100
ag101
ag161
ag162
ag51
ag163
ag102
ag103
ag52
ag164
ag104
ag165
ag53
ag166
ag105
ag54
ag106
ag167
ag168
ag107
ag108
ag109
ag110
ag111
ag55
ag169
ag112
ag56
ag113
ag114
ag170
ag115
ag116
ag117
ag57
ag171
ag118
ag119
ag58
ag172
ag59
ag120
ag60
ag61
ag62
ag121
ag122
ag123
ag124
ag125
ag173
ag174
ag126
ag63
ag127
ag64
ag65
ag175
ag128
ag129
ag130
ag176
ag131
ag66
ag177
ag67
ag68
ag69
ag132
ag133
ag178
ag179
ag70
ag71
ag180
ag134
ag135
ag136
ag181
ag182
ag72
ag73
ag137
ag74
asg9
(lp184
sbsS'BistroJeanty'
p185
(i__main__
Restaurant
p186
(dp187
g5
(lp188
sg7
(lp189
sg9
(lp190
sg11
S'4a4ed4b9f964a52023af1fe3'
p191
sg13
(lp192
sbsb.