(i__main__
TrainData
p0
(dp1
S'Boulevard'
p2
(i__main__
Restaurant
p3
(dp4
S'NoPeople'
p5
(lp6
sS'People'
p7
(lp8
S'http://scontent-a.cdninstagram.com/hphotos-xaf1/t51.2885-15/10560954_726273697419301_1749790390_n.jpg'
p9
aS'http://scontent-a.cdninstagram.com/hphotos-xpf1/t51.2885-15/10547225_708125165907318_1879806984_n.jpg'
p10
aS'http://scontent-a.cdninstagram.com/hphotos-xpa1/t51.2885-15/10474981_1450794301841080_1335291248_n.jpg'
p11
aS'http://scontent-a.cdninstagram.com/hphotos-xpf1/t51.2885-15/10549922_698655386871752_1515886874_n.jpg'
p12
aS'http://scontent-b.cdninstagram.com/hphotos-xfp1/t51.2885-15/10520114_271514046383768_1117650008_n.jpg'
p13
aS'http://scontent-b.cdninstagram.com/hphotos-xpf1/t51.2885-15/10471907_1497100437194347_456500854_n.jpg'
p14
aS'http://scontent-a.cdninstagram.com/hphotos-xap1/t51.2885-15/10499242_308708525955761_739239500_n.jpg'
p15
aS'http://scontent-a.cdninstagram.com/hphotos-xpa1/t51.2885-15/925045_788083911225480_1135686878_n.jpg'
p16
aS'http://scontent-a.cdninstagram.com/hphotos-xap1/t51.2885-15/10499166_612728508825844_123482371_n.jpg'
p17
aS'http://scontent-b.cdninstagram.com/hphotos-xpf1/t51.2885-15/10449076_525361740902068_1593590025_n.jpg'
p18
aS'http://scontent-b.cdninstagram.com/hphotos-xpa1/t51.2885-15/10488794_750784648297302_794888463_n.jpg'
p19
aS'http://scontent-b.cdninstagram.com/hphotos-xap1/t51.2885-15/10349820_784905198209887_192912194_n.jpg'
p20
aS'http://scontent-b.cdninstagram.com/hphotos-xap1/t51.2885-15/925290_1529509777269464_876175713_n.jpg'
p21
aS'http://scontent-b.cdninstagram.com/hphotos-xpa1/t51.2885-15/10488592_1496995887201031_1293677962_n.jpg'
p22
aS'http://scontent-b.cdninstagram.com/hphotos-xaf1/t51.2885-15/1741950_1461582404087777_826775426_n.jpg'
p23
aS'http://scontent-a.cdninstagram.com/hphotos-xfp1/t51.2885-15/10488606_591885837576423_1779955214_n.jpg'
p24
aS'http://scontent-b.cdninstagram.com/hphotos-xpf1/t51.2885-15/10471786_682927361760282_1517186179_n.jpg'
p25
aS'http://scontent-a.cdninstagram.com/hphotos-xpf1/t51.2885-15/891392_291964874314875_542629290_n.jpg'
p26
aS'http://scontent-a.cdninstagram.com/hphotos-xpa1/t51.2885-15/10471964_253881731480100_1373794523_n.jpg'
p27
aS'http://scontent-a.cdninstagram.com/hphotos-xfp1/t51.2885-15/10251379_457804227689387_1093696210_n.jpg'
p28
aS'http://scontent-a.cdninstagram.com/hphotos-xpf1/t51.2885-15/891386_1428346964107881_281244954_n.jpg'
p29
aS'http://scontent-a.cdninstagram.com/hphotos-xpa1/t51.2885-15/10449135_299892823503340_714812410_n.jpg'
p30
aS'http://scontent-a.cdninstagram.com/hphotos-xpf1/t51.2885-15/10454206_1438629713074304_2031682813_n.jpg'
p31
aS'http://scontent-b.cdninstagram.com/hphotos-xfp1/t51.2885-15/10362147_319976864824771_1449764255_n.jpg'
p32
aS'http://scontent-a.cdninstagram.com/hphotos-xaf1/t51.2885-15/914361_511772198951998_38596256_n.jpg'
p33
aS'http://scontent-b.cdninstagram.com/hphotos-xfp1/t51.2885-15/10362087_1617722695119753_1975036771_n.jpg'
p34
aS'http://scontent-b.cdninstagram.com/hphotos-xpa1/t51.2885-15/10375787_748189978583013_1571864319_n.jpg'
p35
aS'http://scontent-a.cdninstagram.com/hphotos-xpf1/t51.2885-15/10401782_566462960138326_870180922_n.jpg'
p36
aS'http://scontent-b.cdninstagram.com/hphotos-xpf1/t51.2885-15/10401704_748141248570983_597058611_n.jpg'
p37
aS'http://scontent-b.cdninstagram.com/hphotos-xpf1/t51.2885-15/10362242_1451391368435298_26593651_n.jpg'
p38
aS'http://scontent-a.cdninstagram.com/hphotos-xap1/t51.2885-15/10401771_641939775894692_922678954_n.jpg'
p39
aS'http://scontent-b.cdninstagram.com/hphotos-xpf1/t51.2885-15/10375550_529931663777830_1621864421_n.jpg'
p40
aS'http://scontent-a.cdninstagram.com/hphotos-xfa1/t51.2885-15/10296598_242436802614828_585021394_n.jpg'
p41
aS'http://scontent-b.cdninstagram.com/hphotos-xaf1/t51.2885-15/10311114_268569073315376_230892334_n.jpg'
p42
aS'http://scontent-a.cdninstagram.com/hphotos-xpf1/t51.2885-15/10401665_884911811535222_1727908365_n.jpg'
p43
aS'http://scontent-a.cdninstagram.com/hphotos-xap1/t51.2885-15/10326633_1413386045607557_2144837659_n.jpg'
p44
aS'http://scontent-a.cdninstagram.com/hphotos-xpf1/t51.2885-15/10369439_321294304686456_150680280_n.jpg'
p45
aS'http://scontent-a.cdninstagram.com/hphotos-xpa1/t51.2885-15/924989_1382342558720519_1957086930_n.jpg'
p46
aS'http://scontent-b.cdninstagram.com/hphotos-xpf1/t51.2885-15/10354307_1422142198052195_248260460_n.jpg'
p47
asS'Food'
p48
(lp49
S'http://scontent-b.cdninstagram.com/hphotos-xpa1/t51.2885-15/927724_317256731781030_90080576_n.jpg'
p50
aS'http://scontent-a.cdninstagram.com/hphotos-xpa1/t51.2885-15/1538321_821275237884131_2054518801_n.jpg'
p51
aS'http://scontent-a.cdninstagram.com/hphotos-xaf1/t51.2885-15/10570156_295229760658568_680849298_n.jpg'
p52
aS'http://scontent-a.cdninstagram.com/hphotos-xfp1/t51.2885-15/10549596_340087826154254_439267726_n.jpg'
p53
aS'http://scontent-b.cdninstagram.com/hphotos-xfa1/t51.2885-15/10560982_1471886059726123_910559359_n.jpg'
p54
aS'http://scontent-b.cdninstagram.com/hphotos-xfp1/t51.2885-15/10549909_248970238634438_1162233709_n.jpg'
p55
aS'http://scontent-a.cdninstagram.com/hphotos-xpa1/t51.2885-15/925567_1495910963959320_142832892_n.jpg'
p56
aS'http://scontent-a.cdninstagram.com/hphotos-xpa1/t51.2885-15/10499157_259808127549082_2018999781_n.jpg'
p57
aS'http://scontent-a.cdninstagram.com/hphotos-xap1/t51.2885-15/928023_618706961577809_1635791427_n.jpg'
p58
aS'http://scontent-a.cdninstagram.com/hphotos-xpa1/t51.2885-15/10520128_1509915505888861_114643889_n.jpg'
p59
aS'http://scontent-a.cdninstagram.com/hphotos-xfp1/t51.2885-15/10488648_302790083216223_1437101755_n.jpg'
p60
aS'http://scontent-b.cdninstagram.com/hphotos-xpf1/t51.2885-15/10475158_775708932473270_1099027588_n.jpg'
p61
aS'http://scontent-a.cdninstagram.com/hphotos-xaf1/t51.2885-15/10431882_476381645798103_1926357027_n.jpg'
p62
aS'http://scontent-b.cdninstagram.com/hphotos-xfa1/t51.2885-15/10488424_1439349186333875_1789576809_n.jpg'
p63
aS'http://scontent-a.cdninstagram.com/hphotos-xpf1/t51.2885-15/10349497_1434168450201886_1202015226_n.jpg'
p64
aS'http://scontent-a.cdninstagram.com/hphotos-xpa1/t51.2885-15/928594_1560939414133277_548055140_n.jpg'
p65
aS'http://scontent-a.cdninstagram.com/hphotos-xpa1/t51.2885-15/10454008_663781200369981_1310318118_n.jpg'
p66
aS'http://scontent-a.cdninstagram.com/hphotos-xpa1/t51.2885-15/10513993_508729749259229_1698345203_n.jpg'
p67
aS'http://scontent-b.cdninstagram.com/hphotos-xpa1/t51.2885-15/10474934_684780141558576_36180991_n.jpg'
p68
aS'http://scontent-a.cdninstagram.com/hphotos-xfp1/t51.2885-15/10499160_726910087355520_762817156_n.jpg'
p69
aS'http://scontent-a.cdninstagram.com/hphotos-xpa1/t51.2885-15/10488703_565345846830999_990160226_n.jpg'
p70
aS'http://scontent-b.cdninstagram.com/hphotos-xpa1/t51.2885-15/925021_688750251190042_946733147_n.jpg'
p71
aS'http://scontent-a.cdninstagram.com/hphotos-xfp1/t51.2885-15/10488687_805333579491139_1656473676_n.jpg'
p72
aS'http://scontent-a.cdninstagram.com/hphotos-xfp1/t51.2885-15/10467775_1480321222205288_669133034_n.jpg'
p73
aS'http://scontent-b.cdninstagram.com/hphotos-xpf1/t51.2885-15/10488589_274578792728096_195612794_n.jpg'
p74
aS'http://scontent-a.cdninstagram.com/hphotos-xaf1/t51.2885-15/10362180_260018424202274_562493693_n.jpg'
p75
aS'http://scontent-b.cdninstagram.com/hphotos-xpa1/t51.2885-15/10483460_557126071063547_616252307_n.jpg'
p76
aS'http://scontent-b.cdninstagram.com/hphotos-xap1/t51.2885-15/10475028_1500296283519940_1437845965_n.jpg'
p77
aS'http://scontent-b.cdninstagram.com/hphotos-xfp1/t51.2885-15/10424664_850751108286994_1417961602_n.jpg'
p78
aS'http://scontent-a.cdninstagram.com/hphotos-xpa1/t51.2885-15/1599668_1491658184401693_1142898458_n.jpg'
p79
aS'http://scontent-b.cdninstagram.com/hphotos-xap1/t51.2885-15/10454220_638062636278129_706547074_n.jpg'
p80
aS'http://scontent-a.cdninstagram.com/hphotos-xpa1/t51.2885-15/10413883_257975244390741_1013472170_n.jpg'
p81
aS'http://scontent-a.cdninstagram.com/hphotos-xap1/t51.2885-15/927058_247105142165073_1863943316_n.jpg'
p82
aS'http://scontent-a.cdninstagram.com/hphotos-xpf1/t51.2885-15/10431935_397059190432045_753903586_n.jpg'
p83
aS'http://scontent-b.cdninstagram.com/hphotos-xap1/t51.2885-15/10454022_688207224584475_637323447_n.jpg'
p84
aS'http://scontent-a.cdninstagram.com/hphotos-xpf1/t51.2885-15/10299761_300661576762896_625126697_n.jpg'
p85
aS'http://scontent-b.cdninstagram.com/hphotos-xpf1/t51.2885-15/10424653_1431810920422751_137752687_n.jpg'
p86
aS'http://scontent-a.cdninstagram.com/hphotos-xpf1/t51.2885-15/10362164_491203571009368_1485026715_n.jpg'
p87
aS'http://scontent-b.cdninstagram.com/hphotos-xap1/t51.2885-15/928554_229896313886152_4685939_n.jpg'
p88
aS'http://scontent-b.cdninstagram.com/hphotos-xfp1/t51.2885-15/10369278_1476202855950899_2100104463_n.jpg'
p89
aS'http://scontent-a.cdninstagram.com/hphotos-xfp1/t51.2885-15/10369368_1429303470670040_1501092520_n.jpg'
p90
aS'http://scontent-b.cdninstagram.com/hphotos-xap1/t51.2885-15/10414011_480897745375065_448080715_n.jpg'
p91
aS'http://scontent-b.cdninstagram.com/hphotos-xpa1/t51.2885-15/10358413_716701178389399_1441957882_n.jpg'
p92
aS'http://scontent-a.cdninstagram.com/hphotos-xfp1/t51.2885-15/10431954_246800068777472_923153562_n.jpg'
p93
aS'http://scontent-b.cdninstagram.com/hphotos-xfp1/t51.2885-15/10401853_844592382219035_1510910050_n.jpg'
p94
aS'http://scontent-b.cdninstagram.com/hphotos-xpa1/t51.2885-15/10387921_1493725377512050_1180405943_n.jpg'
p95
aS'http://scontent-b.cdninstagram.com/hphotos-xap1/t51.2885-15/10387762_569600829827114_1464308445_n.jpg'
p96
aS'http://scontent-b.cdninstagram.com/hphotos-xpf1/t51.2885-15/10431787_1439535312969698_1083506503_n.jpg'
p97
aS'http://scontent-a.cdninstagram.com/hphotos-xap1/t51.2885-15/10354572_893041060721532_406145386_n.jpg'
p98
aS'http://scontent-a.cdninstagram.com/hphotos-xpf1/t51.2885-15/10358452_1493786990833138_1184560555_n.jpg'
p99
aS'http://scontent-a.cdninstagram.com/hphotos-xfa1/t51.2885-15/10362196_1459416474303239_54108196_n.jpg'
p100
aS'http://scontent-a.cdninstagram.com/hphotos-xfp1/t51.2885-15/10375593_699092950156045_1752444357_n.jpg'
p101
aS'http://scontent-b.cdninstagram.com/hphotos-xap1/t51.2885-15/10354318_850882661593279_388672330_n.jpg'
p102
aS'http://scontent-b.cdninstagram.com/hphotos-xaf1/t51.2885-15/10401738_861916950489159_1880150393_n.jpg'
p103
aS'http://scontent-a.cdninstagram.com/hphotos-xpf1/t51.2885-15/10362269_290657214428098_1969728416_n.jpg'
p104
aS'http://scontent-a.cdninstagram.com/hphotos-xfp1/t51.2885-15/10424511_631137223628911_2139005144_n.jpg'
p105
aS'http://scontent-b.cdninstagram.com/hphotos-xpa1/t51.2885-15/928255_260410507476168_450545278_n.jpg'
p106
aS'http://scontent-b.cdninstagram.com/hphotos-xap1/t51.2885-15/927954_525942970850704_729157591_n.jpg'
p107
aS'http://scontent-b.cdninstagram.com/hphotos-xaf1/t51.2885-15/10375644_283609938466346_138836152_n.jpg'
p108
aS'http://scontent-a.cdninstagram.com/hphotos-xpa1/t51.2885-15/10326581_674853635883510_541932946_n.jpg'
p109
aS'http://scontent-a.cdninstagram.com/hphotos-xap1/t51.2885-15/925011_471790086289441_1168156078_n.jpg'
p110
aS'http://scontent-b.cdninstagram.com/hphotos-xap1/t51.2885-15/10388055_232808676914427_635251874_n.jpg'
p111
aS'http://scontent-b.cdninstagram.com/hphotos-xap1/t51.2885-15/10362062_858625577486316_1128895332_n.jpg'
p112
aS'http://scontent-b.cdninstagram.com/hphotos-xap1/t51.2885-15/10375741_842117285817995_258105594_n.jpg'
p113
aS'http://scontent-b.cdninstagram.com/hphotos-xpa1/t51.2885-15/926456_655942051142191_1596092637_n.jpg'
p114
aS'http://scontent-a.cdninstagram.com/hphotos-xap1/t51.2885-15/927068_274204806085636_539056065_n.jpg'
p115
aS'http://scontent-b.cdninstagram.com/hphotos-xpa1/t51.2885-15/10296686_239747439566374_1907810561_n.jpg'
p116
aS'http://scontent-b.cdninstagram.com/hphotos-prn/t51.2885-15/929103_634494523291867_502995194_n.jpg'
p117
asS'foursquareID'
p118
S'3fd66200f964a52052ed1ee3'
p119
sS'Reject'
p120
(lp121
S'http://scontent-b.cdninstagram.com/hphotos-xpa1/t51.2885-15/10533277_769207503102016_1913964235_n.jpg'
p122
aS'http://scontent-a.cdninstagram.com/hphotos-xaf1/t51.2885-15/10561206_1514621865419528_1959993273_n.jpg'
p123
aS'http://scontent-a.cdninstagram.com/hphotos-xpa1/t51.2885-15/10518272_799879743379055_2092918588_n.jpg'
p124
aS'http://scontent-b.cdninstagram.com/hphotos-xpa1/t51.2885-15/10296932_254255251439761_1229911197_n.jpg'
p125
aS'http://scontent-a.cdninstagram.com/hphotos-xaf1/t51.2885-15/10554192_238229623054780_1270981982_n.jpg'
p126
aS'http://scontent-a.cdninstagram.com/hphotos-xfp1/t51.2885-15/10546939_252462168280421_290341185_n.jpg'
p127
aS'http://scontent-a.cdninstagram.com/hphotos-xfa1/t51.2885-15/10535104_1439492393002474_1763908655_n.jpg'
p128
aS'http://scontent-b.cdninstagram.com/hphotos-xaf1/t51.2885-15/914787_481865481949919_1938810588_n.jpg'
p129
aS'http://scontent-a.cdninstagram.com/hphotos-xfp1/t51.2885-15/10549720_1444021152526671_194994571_n.jpg'
p130
aS'http://scontent-a.cdninstagram.com/hphotos-xpf1/t51.2885-15/10488629_287613838087577_1779037768_n.jpg'
p131
aS'http://scontent-a.cdninstagram.com/hphotos-xap1/t51.2885-15/10518034_1468297153417627_939105267_n.jpg'
p132
aS'http://scontent-b.cdninstagram.com/hphotos-xpa1/t51.2885-15/10522841_296832353818707_1889286864_n.jpg'
p133
aS'http://scontent-a.cdninstagram.com/hphotos-xpa1/t51.2885-15/10520372_1435049850115175_1642736841_n.jpg'
p134
aS'http://scontent-b.cdninstagram.com/hphotos-xfp1/l/t51.2885-15/10424572_542801569159536_481137483_n.jpg'
p135
aS'http://scontent-b.cdninstagram.com/hphotos-prn/t51.2885-15/1517369_800569923316047_1154287591_n.jpg'
p136
aS'http://scontent-b.cdninstagram.com/hphotos-xfp1/t51.2885-15/10471998_1434400743501006_1183993129_n.jpg'
p137
aS'http://scontent-b.cdninstagram.com/hphotos-xpf1/t51.2885-15/10432049_1422870484662649_1598612278_n.jpg'
p138
aS'http://scontent-a.cdninstagram.com/hphotos-xap1/t51.2885-15/10507911_1429919580619988_711318309_n.jpg'
p139
aS'http://scontent-a.cdninstagram.com/hphotos-xaf1/t51.2885-15/10413120_1450924068489843_1790016192_n.jpg'
p140
aS'http://scontent-a.cdninstagram.com/hphotos-xpa1/t51.2885-15/926491_852627891417020_575707944_n.jpg'
p141
aS'http://scontent-b.cdninstagram.com/hphotos-xpa1/t51.2885-15/924391_699092886810695_2123784708_n.jpg'
p142
aS'http://scontent-b.cdninstagram.com/hphotos-xap1/t51.2885-15/10471839_657892737633422_1286108601_n.jpg'
p143
aS'http://scontent-b.cdninstagram.com/hphotos-xpf1/t51.2885-15/10453934_1430120920585280_916901109_n.jpg'
p144
aS'http://scontent-a.cdninstagram.com/hphotos-xpa1/t51.2885-15/10471922_671011689656047_329704285_n.jpg'
p145
aS'http://scontent-b.cdninstagram.com/hphotos-xfa1/t51.2885-15/10349728_262807117258719_1124305788_n.jpg'
p146
aS'http://scontent-b.cdninstagram.com/hphotos-xpa1/t51.2885-15/10414049_559319457522991_375447409_n.jpg'
p147
aS'http://scontent-b.cdninstagram.com/hphotos-xaf1/t51.2885-15/10387878_257687287770194_2142258210_n.jpg'
p148
aS'http://scontent-a.cdninstagram.com/hphotos-xap1/t51.2885-15/10467795_782964765070321_1768863962_n.jpg'
p149
aS'http://scontent-b.cdninstagram.com/hphotos-xpa1/t51.2885-15/928271_1417348821878719_804163428_n.jpg'
p150
aS'http://scontent-b.cdninstagram.com/hphotos-prn/t51.2885-15/10362072_415369598606336_1126047385_n.jpg'
p151
aS'http://scontent-a.cdninstagram.com/hphotos-xpa1/t51.2885-15/10369460_780914831941999_386728946_n.jpg'
p152
aS'http://scontent-a.cdninstagram.com/hphotos-xpa1/t51.2885-15/10387835_258888904297752_1893566347_n.jpg'
p153
ag102
aS'http://scontent-a.cdninstagram.com/hphotos-xpa1/t51.2885-15/927667_737210942996602_1760202131_n.jpg'
p154
aS'http://scontent-a.cdninstagram.com/hphotos-xfp1/t51.2885-15/10413000_1456592034579070_958867385_n.jpg'
p155
aS'http://scontent-a.cdninstagram.com/hphotos-prn/t51.2885-15/929112_418255328314306_1840283630_n.jpg'
p156
aS'http://scontent-b.cdninstagram.com/hphotos-xpf1/t51.2885-15/10354493_472427322903190_2134467627_n.jpg'
p157
aS'http://scontent-b.cdninstagram.com/hphotos-xpf1/t51.2885-15/1389935_710063282394436_657199619_n.jpg'
p158
aS'http://scontent-b.cdninstagram.com/hphotos-xap1/t51.2885-15/924981_501627489966544_1068762589_n.jpg'
p159
aS'http://scontent-b.cdninstagram.com/hphotos-xap1/t51.2885-15/925881_599680476794308_451057066_n.jpg'
p160
aS'http://scontent-b.cdninstagram.com/hphotos-xap1/t51.2885-15/926463_1423262217940137_428777817_n.jpg'
p161
aS'http://scontent-b.cdninstagram.com/hphotos-xpa1/t51.2885-15/10354577_1418050045138102_1209305103_n.jpg'
p162
aS'http://scontent-b.cdninstagram.com/hphotos-xpa1/t51.2885-15/925499_626089904145042_1535212543_n.jpg'
p163
aS'http://scontent-b.cdninstagram.com/hphotos-xpf1/t51.2885-15/10362233_279306305569844_1865818058_n.jpg'
p164
asS'urlList'
p165
(lp166
g50
ag51
ag122
ag52
ag123
ag53
ag54
ag9
ag10
ag55
ag124
ag125
ag11
ag126
ag56
ag127
ag12
ag57
ag13
ag58
ag128
ag59
ag129
ag130
ag14
ag60
ag131
ag15
ag16
ag17
ag132
ag61
ag133
ag134
ag62
ag63
ag18
ag135
ag64
ag65
ag19
ag66
ag67
ag20
ag68
ag69
ag70
ag136
ag21
ag71
ag72
ag137
ag138
ag22
ag73
ag139
ag23
ag140
ag141
ag142
ag74
ag143
ag24
ag75
ag25
ag76
ag77
ag144
ag26
ag27
ag78
ag28
ag145
ag29
ag79
ag80
ag30
ag146
ag147
ag148
ag81
ag82
ag149
ag83
ag84
ag85
ag86
ag31
ag32
ag33
ag34
ag87
ag88
ag89
ag35
ag90
ag91
ag92
ag93
ag94
ag95
ag150
ag36
ag96
ag97
ag98
ag99
ag100
ag151
ag152
ag101
ag153
ag102
ag103
ag154
ag104
ag105
ag155
ag156
ag37
ag106
ag107
ag38
ag157
ag39
ag108
ag109
ag158
ag110
ag111
ag112
ag113
ag159
ag114
ag40
ag115
ag41
ag42
ag43
ag44
ag45
ag160
ag46
ag161
ag162
ag163
ag164
ag116
ag117
ag47
asS'Blurry'
p167
(lp168
sbsS'WaterBar'
p169
(i__main__
Restaurant
p170
(dp171
g165
(lp172
sg5
(lp173
sg167
(lp174
sg118
S'49b41d95f964a520e7521fe3'
p175
sg7
(lp176
sbsS'Bouchon'
p177
(i__main__
Restaurant
p178
(dp179
g165
(lp180
sg5
(lp181
sg167
(lp182
sg118
S'49fde735f964a520416f1fe3'
p183
sg7
(lp184
sbsS'BistroJeanty'
p185
(i__main__
Restaurant
p186
(dp187
g165
(lp188
sg5
(lp189
sg167
(lp190
sg118
S'4a4ed4b9f964a52023af1fe3'
p191
sg7
(lp192
sbsb.